; Function Attrs: mustprogress uwtable
define dso_local ptr @_ZN4Luau12AstNameTable8getOrAddEPKc(ptr noundef nonnull align 8 dereferenceable(56) %0, ptr noundef %1) local_unnamed_addr #5 align 2 {
  %3 = alloca %"struct.Luau::AstNameTable::Entry", align 8
  %4 = tail call i64 @strlen(ptr noundef nonnull dereferenceable(1) %1) #27
  call void @llvm.lifetime.start.p0(i64 16, ptr nonnull %3) #24
  store ptr %1, ptr %3, align 8, !tbaa !42
  %5 = getelementptr inbounds nuw i8, ptr %3, i64 8
  %6 = trunc i64 %4 to i32
  store i32 %6, ptr %5, align 8, !tbaa !26
  %7 = getelementptr inbounds nuw i8, ptr %3, i64 12
  store i32 0, ptr %7, align 4, !tbaa !43
  %8 = call noundef nonnull align 8 dereferenceable(16) ptr @_ZN4Luau12DenseHashSetINS_12AstNameTable5EntryENS1_9EntryHashESt8equal_toIS2_EE6insertERKS2_(ptr noundef nonnull align 8 dereferenceable(56) %0, ptr noundef nonnull align 8 dereferenceable(16) %3)
  %9 = getelementptr inbounds nuw i8, ptr %8, i64 12
  %10 = load i32, ptr %9, align 4, !tbaa !43
  %.not.i = icmp eq i32 %10, 0
  br i1 %.not.i, label %14, label %11

11:                                               ; preds = %2
  %12 = load i64, ptr %8, align 8, !tbaa !25
  %13 = inttoptr i64 %12 to ptr
  br label %_ZN4Luau12AstNameTable16getOrAddWithTypeEPKcm.exit

14:                                               ; preds = %2
  %15 = getelementptr inbounds nuw i8, ptr %0, i64 48
  %16 = load ptr, ptr %15, align 8, !tbaa !47
  %17 = add i64 %4, 1
  %18 = call noundef ptr @_ZN4Luau9Allocator8allocateEm(ptr noundef nonnull align 8 dereferenceable(16) %16, i64 noundef %17)
  call void @llvm.memcpy.p0.p0.i64(ptr align 1 %18, ptr nonnull align 1 %1, i64 %4, i1 false)
  %19 = getelementptr inbounds nuw i8, ptr %18, i64 %4
  store i8 0, ptr %19, align 1, !tbaa !15
  %20 = ptrtoint ptr %18 to i64
  store i64 %20, ptr %8, align 8, !tbaa !25
  %21 = load i8, ptr %1, align 1, !tbaa !15
  %22 = icmp eq i8 %21, 64
  %23 = select i1 %22, i32 284, i32 281
  store i32 %23, ptr %9, align 4, !tbaa !43
  br label %_ZN4Luau12AstNameTable16getOrAddWithTypeEPKcm.exit

_ZN4Luau12AstNameTable16getOrAddWithTypeEPKcm.exit: ; preds = %11, %14
  %.pn27.i = phi ptr [ %13, %11 ], [ %18, %14 ]
  call void @llvm.lifetime.end.p0(i64 16, ptr nonnull %3) #24
  ret ptr %.pn27.i
}